target datalayout = "e-m:e-p270:32:32-p271:32:32-p272:64:64-i64:64-i128:128-f80:128-n8:16:32:64-S128"
target triple = "x86_64-pc-linux-gnu"

%struct._exr_context_initializer_v3 = type { i64, ptr, ptr, ptr, ptr, ptr, ptr, ptr, ptr, i32, i32, i32, i32, i32, float, i32, [4 x i8] }
%struct._priv_exr_context_t = type { i8, i8, i8, i8, i8, i8, i8, i8, %struct.exr_attr_string_t, %struct.exr_attr_string_t, ptr, ptr, ptr, ptr, ptr, ptr, ptr, ptr, i32, i32, i32, i32, i32, float, ptr, ptr, ptr, i64, ptr, ptr, i64, i32, i32, i32, i32, %struct._priv_exr_part_t, ptr, ptr, %struct.exr_attribute_list, %union.pthread_mutex_t, i8, i8, [2 x i8], i32 }
%struct.exr_attr_string_t = type { i32, i32, ptr }
%struct._priv_exr_part_t = type { i32, i32, %struct.exr_attribute_list, ptr, ptr, ptr, ptr, ptr, ptr, ptr, ptr, ptr, ptr, ptr, ptr, ptr, ptr, %struct.exr_attr_box2i_t, %struct.exr_attr_box2i_t, i32, i32, i32, float, i32, i32, ptr, ptr, ptr, ptr, i64, i16, i16, i32, i64, i64 }
%struct.exr_attr_box2i_t = type { %struct.exr_attr_v2i_t, %struct.exr_attr_v2i_t }
%struct.exr_attr_v2i_t = type { i32, i32 }
%struct.exr_attribute_list = type { i32, i32, ptr, ptr }
%union.pthread_mutex_t = type { %struct.__pthread_mutex_s }
%struct.__pthread_mutex_s = type { i32, i32, i32, i32, i32, i16, i16, %struct.__pthread_internal_list }
%struct.__pthread_internal_list = type { ptr, ptr }
%struct._internal_exr_filehandle = type { i32 }

@.str = private unnamed_addr constant [53 x i8] c"Invalid filename passed to test file header function\00", align 1
@.str.18 = private unnamed_addr constant [33 x i8] c"Unable to open file for read: %s\00", align 1

; Function Attrs: nounwind uwtable
define internal i32 @process_query_size(ptr noundef %0, ptr noundef %1) #0 {
  %3 = alloca ptr, align 8
  %4 = alloca ptr, align 8
  store ptr %0, ptr %3, align 8, !tbaa !12
  store ptr %1, ptr %4, align 8, !tbaa !8
  %5 = load ptr, ptr %4, align 8, !tbaa !8
  %6 = getelementptr inbounds nuw %struct._exr_context_initializer_v3, ptr %5, i32 0, i32 6
  %7 = load ptr, ptr %6, align 8, !tbaa !30
  %8 = icmp ne ptr %7, null
  br i1 %8, label %9, label %20

9:                                                ; preds = %2
  %10 = load ptr, ptr %4, align 8, !tbaa !8
  %11 = getelementptr inbounds nuw %struct._exr_context_initializer_v3, ptr %10, i32 0, i32 6
  %12 = load ptr, ptr %11, align 8, !tbaa !30
  %13 = load ptr, ptr %3, align 8, !tbaa !12
  %14 = load ptr, ptr %3, align 8, !tbaa !12
  %15 = getelementptr inbounds nuw %struct._priv_exr_context_t, ptr %14, i32 0, i32 25
  %16 = load ptr, ptr %15, align 8, !tbaa !51
  %17 = call i64 %12(ptr noundef %13, ptr noundef %16)
  %18 = load ptr, ptr %3, align 8, !tbaa !12
  %19 = getelementptr inbounds nuw %struct._priv_exr_context_t, ptr %18, i32 0, i32 27
  store i64 %17, ptr %19, align 8, !tbaa !63
  br label %23

20:                                               ; preds = %2
  %21 = load ptr, ptr %3, align 8, !tbaa !12
  %22 = getelementptr inbounds nuw %struct._priv_exr_context_t, ptr %21, i32 0, i32 27
  store i64 -1, ptr %22, align 8, !tbaa !63
  br label %23

23:                                               ; preds = %20, %9
  ret i32 0
}

; Function Attrs: nounwind uwtable
define internal i32 @default_init_read_file(ptr noundef %0) #0 {
  %2 = alloca i32, align 4
  %3 = alloca ptr, align 8
  %4 = alloca i32, align 4
  %5 = alloca ptr, align 8
  %6 = alloca i32, align 4
  store ptr %0, ptr %3, align 8, !tbaa !12
  call void @llvm.lifetime.start.p0(i64 4, ptr %4) #9
  call void @llvm.lifetime.start.p0(i64 8, ptr %5) #9
  %7 = load ptr, ptr %3, align 8, !tbaa !12
  %8 = getelementptr inbounds nuw %struct._priv_exr_context_t, ptr %7, i32 0, i32 25
  %9 = load ptr, ptr %8, align 8, !tbaa !51
  store ptr %9, ptr %5, align 8, !tbaa !54
  %10 = load ptr, ptr %5, align 8, !tbaa !54
  %11 = getelementptr inbounds nuw %struct._internal_exr_filehandle, ptr %10, i32 0, i32 0
  store i32 -1, ptr %11, align 4, !tbaa !56
  %12 = load ptr, ptr %3, align 8, !tbaa !12
  %13 = getelementptr inbounds nuw %struct._priv_exr_context_t, ptr %12, i32 0, i32 26
  store ptr @default_shutdown, ptr %13, align 8, !tbaa !61
  %14 = load ptr, ptr %3, align 8, !tbaa !12
  %15 = getelementptr inbounds nuw %struct._priv_exr_context_t, ptr %14, i32 0, i32 28
  store ptr @default_read_func, ptr %15, align 8, !tbaa !50
  %16 = load ptr, ptr %3, align 8, !tbaa !12
  %17 = getelementptr inbounds nuw %struct._priv_exr_context_t, ptr %16, i32 0, i32 8
  %18 = getelementptr inbounds nuw %struct.exr_attr_string_t, ptr %17, i32 0, i32 2
  %19 = load ptr, ptr %18, align 8, !tbaa !62
  %20 = call i32 (ptr, i32, ...) @open(ptr noundef %19, i32 noundef 524288)
  store i32 %20, ptr %4, align 4, !tbaa !10
  %21 = load i32, ptr %4, align 4, !tbaa !10
  %22 = icmp slt i32 %21, 0
  br i1 %22, label %23, label %32

23:                                               ; preds = %1
  %24 = load ptr, ptr %3, align 8, !tbaa !12
  %25 = getelementptr inbounds nuw %struct._priv_exr_context_t, ptr %24, i32 0, i32 14
  %26 = load ptr, ptr %25, align 8, !tbaa !52
  %27 = load ptr, ptr %3, align 8, !tbaa !12
  %28 = call ptr @__errno_location() #10
  %29 = load i32, ptr %28, align 4, !tbaa !10
  %30 = call ptr @strerror(i32 noundef %29) #9
  %31 = call i32 (ptr, i32, ptr, ...) %26(ptr noundef %27, i32 noundef 5, ptr noundef @.str.18, ptr noundef %30)
  store i32 %31, ptr %2, align 4
  store i32 1, ptr %6, align 4
  br label %36

32:                                               ; preds = %1
  %33 = load i32, ptr %4, align 4, !tbaa !10
  %34 = load ptr, ptr %5, align 8, !tbaa !54
  %35 = getelementptr inbounds nuw %struct._internal_exr_filehandle, ptr %34, i32 0, i32 0
  store i32 %33, ptr %35, align 4, !tbaa !56
  store i32 0, ptr %2, align 4
  store i32 1, ptr %6, align 4
  br label %36

36:                                               ; preds = %32, %23
  call void @llvm.lifetime.end.p0(i64 8, ptr %5) #9
  call void @llvm.lifetime.end.p0(i64 4, ptr %4) #9
  %37 = load i32, ptr %2, align 4
  ret i32 %37
}

; Function Attrs: inlinehint nounwind uwtable
define internal void @fill_context_data(ptr dead_on_unwind noalias writable sret(%struct._exr_context_initializer_v3) align 8 %0, ptr noundef %1) #2 {
  %3 = alloca ptr, align 8
  store ptr %1, ptr %3, align 8, !tbaa !8
  call void @llvm.memset.p0.i64(ptr align 8 %0, i8 0, i64 104, i1 false)
  %4 = getelementptr inbounds %struct._exr_context_initializer_v3, ptr %0, i32 0, i32 0
  store i64 104, ptr %4, align 8
  %5 = getelementptr inbounds %struct._exr_context_initializer_v3, ptr %0, i32 0, i32 13
  store i32 -2, ptr %5, align 8
  %6 = getelementptr inbounds %struct._exr_context_initializer_v3, ptr %0, i32 0, i32 14
  store float -1.000000e+00, ptr %6, align 4
  %7 = load ptr, ptr %3, align 8, !tbaa !8
  %8 = icmp ne ptr %7, null
  br i1 %8, label %9, label %82

9:                                                ; preds = %2
  %10 = load ptr, ptr %3, align 8, !tbaa !8
  %11 = getelementptr inbounds nuw %struct._exr_context_initializer_v3, ptr %10, i32 0, i32 1
  %12 = load ptr, ptr %11, align 8, !tbaa !31
  %13 = getelementptr inbounds nuw %struct._exr_context_initializer_v3, ptr %0, i32 0, i32 1
  store ptr %12, ptr %13, align 8, !tbaa !31
  %14 = load ptr, ptr %3, align 8, !tbaa !8
  %15 = getelementptr inbounds nuw %struct._exr_context_initializer_v3, ptr %14, i32 0, i32 2
  %16 = load ptr, ptr %15, align 8, !tbaa !32
  %17 = getelementptr inbounds nuw %struct._exr_context_initializer_v3, ptr %0, i32 0, i32 2
  store ptr %16, ptr %17, align 8, !tbaa !32
  %18 = load ptr, ptr %3, align 8, !tbaa !8
  %19 = getelementptr inbounds nuw %struct._exr_context_initializer_v3, ptr %18, i32 0, i32 3
  %20 = load ptr, ptr %19, align 8, !tbaa !33
  %21 = getelementptr inbounds nuw %struct._exr_context_initializer_v3, ptr %0, i32 0, i32 3
  store ptr %20, ptr %21, align 8, !tbaa !33
  %22 = load ptr, ptr %3, align 8, !tbaa !8
  %23 = getelementptr inbounds nuw %struct._exr_context_initializer_v3, ptr %22, i32 0, i32 4
  %24 = load ptr, ptr %23, align 8, !tbaa !34
  %25 = getelementptr inbounds nuw %struct._exr_context_initializer_v3, ptr %0, i32 0, i32 4
  store ptr %24, ptr %25, align 8, !tbaa !34
  %26 = load ptr, ptr %3, align 8, !tbaa !8
  %27 = getelementptr inbounds nuw %struct._exr_context_initializer_v3, ptr %26, i32 0, i32 5
  %28 = load ptr, ptr %27, align 8, !tbaa !28
  %29 = getelementptr inbounds nuw %struct._exr_context_initializer_v3, ptr %0, i32 0, i32 5
  store ptr %28, ptr %29, align 8, !tbaa !28
  %30 = load ptr, ptr %3, align 8, !tbaa !8
  %31 = getelementptr inbounds nuw %struct._exr_context_initializer_v3, ptr %30, i32 0, i32 6
  %32 = load ptr, ptr %31, align 8, !tbaa !30
  %33 = getelementptr inbounds nuw %struct._exr_context_initializer_v3, ptr %0, i32 0, i32 6
  store ptr %32, ptr %33, align 8, !tbaa !30
  %34 = load ptr, ptr %3, align 8, !tbaa !8
  %35 = getelementptr inbounds nuw %struct._exr_context_initializer_v3, ptr %34, i32 0, i32 7
  %36 = load ptr, ptr %35, align 8, !tbaa !35
  %37 = getelementptr inbounds nuw %struct._exr_context_initializer_v3, ptr %0, i32 0, i32 7
  store ptr %36, ptr %37, align 8, !tbaa !35
  %38 = load ptr, ptr %3, align 8, !tbaa !8
  %39 = getelementptr inbounds nuw %struct._exr_context_initializer_v3, ptr %38, i32 0, i32 8
  %40 = load ptr, ptr %39, align 8, !tbaa !36
  %41 = getelementptr inbounds nuw %struct._exr_context_initializer_v3, ptr %0, i32 0, i32 8
  store ptr %40, ptr %41, align 8, !tbaa !36
  %42 = load ptr, ptr %3, align 8, !tbaa !8
  %43 = getelementptr inbounds nuw %struct._exr_context_initializer_v3, ptr %42, i32 0, i32 9
  %44 = load i32, ptr %43, align 8, !tbaa !37
  %45 = getelementptr inbounds nuw %struct._exr_context_initializer_v3, ptr %0, i32 0, i32 9
  store i32 %44, ptr %45, align 8, !tbaa !37
  %46 = load ptr, ptr %3, align 8, !tbaa !8
  %47 = getelementptr inbounds nuw %struct._exr_context_initializer_v3, ptr %46, i32 0, i32 10
  %48 = load i32, ptr %47, align 4, !tbaa !38
  %49 = getelementptr inbounds nuw %struct._exr_context_initializer_v3, ptr %0, i32 0, i32 10
  store i32 %48, ptr %49, align 4, !tbaa !38
  %50 = load ptr, ptr %3, align 8, !tbaa !8
  %51 = getelementptr inbounds nuw %struct._exr_context_initializer_v3, ptr %50, i32 0, i32 11
  %52 = load i32, ptr %51, align 8, !tbaa !39
  %53 = getelementptr inbounds nuw %struct._exr_context_initializer_v3, ptr %0, i32 0, i32 11
  store i32 %52, ptr %53, align 8, !tbaa !39
  %54 = load ptr, ptr %3, align 8, !tbaa !8
  %55 = getelementptr inbounds nuw %struct._exr_context_initializer_v3, ptr %54, i32 0, i32 12
  %56 = load i32, ptr %55, align 4, !tbaa !40
  %57 = getelementptr inbounds nuw %struct._exr_context_initializer_v3, ptr %0, i32 0, i32 12
  store i32 %56, ptr %57, align 4, !tbaa !40
  %58 = load ptr, ptr %3, align 8, !tbaa !8
  %59 = getelementptr inbounds nuw %struct._exr_context_initializer_v3, ptr %58, i32 0, i32 0
  %60 = load i64, ptr %59, align 8, !tbaa !41
  %61 = icmp uge i64 %60, 96
  br i1 %61, label %62, label %71

62:                                               ; preds = %9
  %63 = load ptr, ptr %3, align 8, !tbaa !8
  %64 = getelementptr inbounds nuw %struct._exr_context_initializer_v3, ptr %63, i32 0, i32 13
  %65 = load i32, ptr %64, align 8, !tbaa !42
  %66 = getelementptr inbounds nuw %struct._exr_context_initializer_v3, ptr %0, i32 0, i32 13
  store i32 %65, ptr %66, align 8, !tbaa !42
  %67 = load ptr, ptr %3, align 8, !tbaa !8
  %68 = getelementptr inbounds nuw %struct._exr_context_initializer_v3, ptr %67, i32 0, i32 14
  %69 = load float, ptr %68, align 4, !tbaa !43
  %70 = getelementptr inbounds nuw %struct._exr_context_initializer_v3, ptr %0, i32 0, i32 14
  store float %69, ptr %70, align 4, !tbaa !43
  br label %71

71:                                               ; preds = %62, %9
  %72 = load ptr, ptr %3, align 8, !tbaa !8
  %73 = getelementptr inbounds nuw %struct._exr_context_initializer_v3, ptr %72, i32 0, i32 0
  %74 = load i64, ptr %73, align 8, !tbaa !41
  %75 = icmp uge i64 %74, 104
  br i1 %75, label %76, label %81

76:                                               ; preds = %71
  %77 = load ptr, ptr %3, align 8, !tbaa !8
  %78 = getelementptr inbounds nuw %struct._exr_context_initializer_v3, ptr %77, i32 0, i32 15
  %79 = load i32, ptr %78, align 8, !tbaa !44
  %80 = getelementptr inbounds nuw %struct._exr_context_initializer_v3, ptr %0, i32 0, i32 15
  store i32 %79, ptr %80, align 8, !tbaa !44
  br label %81

81:                                               ; preds = %76, %71
  br label %82

82:                                               ; preds = %81, %2
  call void @internal_exr_update_default_handlers(ptr noundef %0)
  ret void
}

; Function Attrs: nounwind uwtable
define i32 @exr_test_file_header(ptr noundef %0, ptr noundef %1) #0 {
  %3 = alloca ptr, align 8
  %4 = alloca ptr, align 8
  %5 = alloca i32, align 4
  %6 = alloca ptr, align 8
  %7 = alloca %struct._exr_context_initializer_v3, align 8
  store ptr %0, ptr %3, align 8, !tbaa !3
  store ptr %1, ptr %4, align 8, !tbaa !8
  call void @llvm.lifetime.start.p0(i64 4, ptr %5) #9
  store i32 0, ptr %5, align 4, !tbaa !10
  call void @llvm.lifetime.start.p0(i64 8, ptr %6) #9
  store ptr null, ptr %6, align 8, !tbaa !12
  call void @llvm.lifetime.start.p0(i64 104, ptr %7) #9
  %8 = load ptr, ptr %4, align 8, !tbaa !8
  call void @fill_context_data(ptr dead_on_unwind writable sret(%struct._exr_context_initializer_v3) align 8 %7, ptr noundef %8)
  %9 = load ptr, ptr %3, align 8, !tbaa !3
  %10 = icmp ne ptr %9, null
  br i1 %10, label %11, label %50

11:                                               ; preds = %2
  %12 = call i32 @internal_exr_alloc_context(ptr noundef %6, ptr noundef %7, i32 noundef 0, i64 noundef 4)
  store i32 %12, ptr %5, align 4, !tbaa !10
  %13 = load i32, ptr %5, align 4, !tbaa !10
  %14 = icmp eq i32 %13, 0
  br i1 %14, label %15, label %48

15:                                               ; preds = %11
  %16 = load ptr, ptr %6, align 8, !tbaa !12
  %17 = getelementptr inbounds nuw %struct._priv_exr_context_t, ptr %16, i32 0, i32 10
  store ptr @dispatch_read, ptr %17, align 8, !tbaa !14
  %18 = load ptr, ptr %6, align 8, !tbaa !12
  %19 = load ptr, ptr %6, align 8, !tbaa !12
  %20 = getelementptr inbounds nuw %struct._priv_exr_context_t, ptr %19, i32 0, i32 8
  %21 = load ptr, ptr %3, align 8, !tbaa !3
  %22 = call i32 @exr_attr_string_create(ptr noundef %18, ptr noundef %20, ptr noundef %21)
  store i32 %22, ptr %5, align 4, !tbaa !10
  %23 = load i32, ptr %5, align 4, !tbaa !10
  %24 = icmp eq i32 %23, 0
  br i1 %24, label %25, label %46

25:                                               ; preds = %15
  %26 = getelementptr inbounds nuw %struct._exr_context_initializer_v3, ptr %7, i32 0, i32 5
  %27 = load ptr, ptr %26, align 8, !tbaa !28
  %28 = icmp ne ptr %27, null
  br i1 %28, label %33, label %29

29:                                               ; preds = %25
  %30 = getelementptr inbounds nuw %struct._exr_context_initializer_v3, ptr %7, i32 0, i32 6
  store ptr @default_query_size_func, ptr %30, align 8, !tbaa !30
  %31 = load ptr, ptr %6, align 8, !tbaa !12
  %32 = call i32 @default_init_read_file(ptr noundef %31)
  store i32 %32, ptr %5, align 4, !tbaa !10
  br label %33

33:                                               ; preds = %29, %25
  %34 = load i32, ptr %5, align 4, !tbaa !10
  %35 = icmp eq i32 %34, 0
  br i1 %35, label %36, label %39

36:                                               ; preds = %33
  %37 = load ptr, ptr %6, align 8, !tbaa !12
  %38 = call i32 @process_query_size(ptr noundef %37, ptr noundef %7)
  store i32 %38, ptr %5, align 4, !tbaa !10
  br label %39

39:                                               ; preds = %36, %33
  %40 = load i32, ptr %5, align 4, !tbaa !10
  %41 = icmp eq i32 %40, 0
  br i1 %41, label %42, label %45

42:                                               ; preds = %39
  %43 = load ptr, ptr %6, align 8, !tbaa !12
  %44 = call i32 @internal_exr_check_magic(ptr noundef %43)
  store i32 %44, ptr %5, align 4, !tbaa !10
  br label %45

45:                                               ; preds = %42, %39
  br label %46

46:                                               ; preds = %45, %15
  %47 = call i32 @exr_finish(ptr noundef %6)
  br label %49

48:                                               ; preds = %11
  store i32 1, ptr %5, align 4, !tbaa !10
  br label %49

49:                                               ; preds = %48, %46
  br label %53

50:                                               ; preds = %2
  %51 = getelementptr inbounds nuw %struct._exr_context_initializer_v3, ptr %7, i32 0, i32 1
  %52 = load ptr, ptr %51, align 8, !tbaa !31
  call void %52(ptr noundef null, i32 noundef 3, ptr noundef @.str)
  store i32 3, ptr %5, align 4, !tbaa !10
  br label %53

53:                                               ; preds = %50, %49
  %54 = load i32, ptr %5, align 4, !tbaa !10
  call void @llvm.lifetime.end.p0(i64 104, ptr %7) #9
  call void @llvm.lifetime.end.p0(i64 8, ptr %6) #9
  call void @llvm.lifetime.end.p0(i64 4, ptr %5) #9
  ret i32 %54
}