; Function Attrs: nounwind uwtable
define i32 @exr_test_file_header(ptr noundef %0, ptr noundef readonly %1) local_unnamed_addr #0 {
  %3 = alloca ptr, align 8
  %4 = alloca %struct._exr_context_initializer_v3, align 8
  call void @llvm.lifetime.start.p0(i64 8, ptr nonnull %3) #13
  store ptr null, ptr %3, align 8, !tbaa !3
  call void @llvm.lifetime.start.p0(i64 104, ptr nonnull %4) #13
  tail call void @llvm.experimental.noalias.scope.decl(metadata !8)
  %5 = getelementptr inbounds nuw i8, ptr %4, i64 8
  call void @llvm.memset.p0.i64(ptr noundef nonnull align 8 dereferenceable(96) %5, i8 0, i64 96, i1 false), !alias.scope !8
  store i64 104, ptr %4, align 8, !alias.scope !8
  %6 = getelementptr inbounds nuw i8, ptr %4, i64 88
  store i32 -2, ptr %6, align 8, !alias.scope !8
  %7 = getelementptr inbounds nuw i8, ptr %4, i64 92
  store float -1.000000e+00, ptr %7, align 4, !alias.scope !8
  %.not.i = icmp eq ptr %1, null
  br i1 %.not.i, label %fill_context_data.exit, label %8

8:                                                ; preds = %2
  %9 = getelementptr inbounds nuw i8, ptr %1, i64 8
  %10 = load ptr, ptr %9, align 8, !tbaa !11, !noalias !8
  store ptr %10, ptr %5, align 8, !tbaa !11, !alias.scope !8
  %11 = getelementptr inbounds nuw i8, ptr %1, i64 16
  %12 = load ptr, ptr %11, align 8, !tbaa !16, !noalias !8
  %13 = getelementptr inbounds nuw i8, ptr %4, i64 16
  store ptr %12, ptr %13, align 8, !tbaa !16, !alias.scope !8
  %14 = getelementptr inbounds nuw i8, ptr %1, i64 24
  %15 = load ptr, ptr %14, align 8, !tbaa !17, !noalias !8
  %16 = getelementptr inbounds nuw i8, ptr %4, i64 24
  store ptr %15, ptr %16, align 8, !tbaa !17, !alias.scope !8
  %17 = getelementptr inbounds nuw i8, ptr %1, i64 32
  %18 = load ptr, ptr %17, align 8, !tbaa !18, !noalias !8
  %19 = getelementptr inbounds nuw i8, ptr %4, i64 32
  store ptr %18, ptr %19, align 8, !tbaa !18, !alias.scope !8
  %20 = getelementptr inbounds nuw i8, ptr %1, i64 40
  %21 = load ptr, ptr %20, align 8, !tbaa !19, !noalias !8
  %22 = getelementptr inbounds nuw i8, ptr %4, i64 40
  store ptr %21, ptr %22, align 8, !tbaa !19, !alias.scope !8
  %23 = getelementptr inbounds nuw i8, ptr %1, i64 48
  %24 = load ptr, ptr %23, align 8, !tbaa !20, !noalias !8
  %25 = getelementptr inbounds nuw i8, ptr %4, i64 48
  store ptr %24, ptr %25, align 8, !tbaa !20, !alias.scope !8
  %26 = getelementptr inbounds nuw i8, ptr %1, i64 56
  %27 = load ptr, ptr %26, align 8, !tbaa !21, !noalias !8
  %28 = getelementptr inbounds nuw i8, ptr %4, i64 56
  store ptr %27, ptr %28, align 8, !tbaa !21, !alias.scope !8
  %29 = getelementptr inbounds nuw i8, ptr %1, i64 64
  %30 = load ptr, ptr %29, align 8, !tbaa !22, !noalias !8
  %31 = getelementptr inbounds nuw i8, ptr %4, i64 64
  store ptr %30, ptr %31, align 8, !tbaa !22, !alias.scope !8
  %32 = getelementptr inbounds nuw i8, ptr %1, i64 72
  %33 = load i32, ptr %32, align 8, !tbaa !23, !noalias !8
  %34 = getelementptr inbounds nuw i8, ptr %4, i64 72
  store i32 %33, ptr %34, align 8, !tbaa !23, !alias.scope !8
  %35 = getelementptr inbounds nuw i8, ptr %1, i64 76
  %36 = load i32, ptr %35, align 4, !tbaa !24, !noalias !8
  %37 = getelementptr inbounds nuw i8, ptr %4, i64 76
  store i32 %36, ptr %37, align 4, !tbaa !24, !alias.scope !8
  %38 = getelementptr inbounds nuw i8, ptr %1, i64 80
  %39 = load i32, ptr %38, align 8, !tbaa !25, !noalias !8
  %40 = getelementptr inbounds nuw i8, ptr %4, i64 80
  store i32 %39, ptr %40, align 8, !tbaa !25, !alias.scope !8
  %41 = getelementptr inbounds nuw i8, ptr %1, i64 84
  %42 = load i32, ptr %41, align 4, !tbaa !26, !noalias !8
  %43 = getelementptr inbounds nuw i8, ptr %4, i64 84
  store i32 %42, ptr %43, align 4, !tbaa !26, !alias.scope !8
  %44 = load i64, ptr %1, align 8, !tbaa !27, !noalias !8
  %45 = icmp ugt i64 %44, 95
  br i1 %45, label %46, label %fill_context_data.exit

46:                                               ; preds = %8
  %47 = getelementptr inbounds nuw i8, ptr %1, i64 88
  %48 = load i32, ptr %47, align 8, !tbaa !28, !noalias !8
  store i32 %48, ptr %6, align 8, !tbaa !28, !alias.scope !8
  %49 = getelementptr inbounds nuw i8, ptr %1, i64 92
  %50 = load float, ptr %49, align 4, !tbaa !29, !noalias !8
  store float %50, ptr %7, align 4, !tbaa !29, !alias.scope !8
  %51 = icmp ugt i64 %44, 103
  br i1 %51, label %52, label %fill_context_data.exit

52:                                               ; preds = %46
  %53 = getelementptr inbounds nuw i8, ptr %1, i64 96
  %54 = load i32, ptr %53, align 8, !tbaa !30, !noalias !8
  %55 = getelementptr inbounds nuw i8, ptr %4, i64 96
  store i32 %54, ptr %55, align 8, !tbaa !30, !alias.scope !8
  br label %fill_context_data.exit

fill_context_data.exit:                           ; preds = %2, %8, %46, %52
  call void @internal_exr_update_default_handlers(ptr noundef nonnull align 8 %4) #13
  %.not = icmp eq ptr %0, null
  br i1 %.not, label %99, label %56

56:                                               ; preds = %fill_context_data.exit
  %57 = call i32 @internal_exr_alloc_context(ptr noundef nonnull %3, ptr noundef nonnull %4, i32 noundef 0, i64 noundef 4) #13
  %58 = icmp eq i32 %57, 0
  br i1 %58, label %59, label %101

59:                                               ; preds = %56
  %60 = load ptr, ptr %3, align 8, !tbaa !3
  %61 = getelementptr inbounds nuw i8, ptr %60, i64 40
  store ptr @dispatch_read, ptr %61, align 8, !tbaa !31
  %62 = getelementptr inbounds nuw i8, ptr %60, i64 8
  %63 = call i32 @exr_attr_string_create(ptr noundef %60, ptr noundef nonnull %62, ptr noundef nonnull %0) #13
  %64 = icmp eq i32 %63, 0
  br i1 %64, label %65, label %97

65:                                               ; preds = %59
  %66 = getelementptr inbounds nuw i8, ptr %4, i64 40
  %67 = load ptr, ptr %66, align 8, !tbaa !19
  %.not10 = icmp eq ptr %67, null
  br i1 %.not10, label %68, label %default_init_read_file.exit.thread

68:                                               ; preds = %65
  %69 = getelementptr inbounds nuw i8, ptr %4, i64 48
  store ptr @default_query_size_func, ptr %69, align 8, !tbaa !20
  %70 = load ptr, ptr %3, align 8, !tbaa !3
  %71 = getelementptr inbounds nuw i8, ptr %70, i64 136
  %72 = load ptr, ptr %71, align 8, !tbaa !44
  store i32 -1, ptr %72, align 4, !tbaa !45
  %73 = getelementptr inbounds nuw i8, ptr %70, i64 144
  store ptr @default_shutdown, ptr %73, align 8, !tbaa !47
  %74 = getelementptr inbounds nuw i8, ptr %70, i64 160
  store ptr @default_read_func, ptr %74, align 8, !tbaa !48
  %75 = getelementptr inbounds nuw i8, ptr %70, i64 16
  %76 = load ptr, ptr %75, align 8, !tbaa !49
  %77 = call i32 (ptr, i32, ...) @open(ptr noundef %76, i32 noundef 524288) #13
  %78 = icmp slt i32 %77, 0
  br i1 %78, label %default_init_read_file.exit, label %79

79:                                               ; preds = %68
  store i32 %77, ptr %72, align 4, !tbaa !45
  br label %default_init_read_file.exit.thread

default_init_read_file.exit:                      ; preds = %68
  %80 = getelementptr inbounds nuw i8, ptr %70, i64 72
  %81 = load ptr, ptr %80, align 8, !tbaa !50
  %82 = tail call ptr @__errno_location() #14
  %83 = load i32, ptr %82, align 4, !tbaa !51
  %84 = call ptr @strerror(i32 noundef %83) #13
  %85 = call i32 (ptr, i32, ptr, ...) %81(ptr noundef nonnull %70, i32 noundef 5, ptr noundef nonnull @.str.18, ptr noundef %84) #13
  %86 = icmp eq i32 %85, 0
  br i1 %86, label %default_init_read_file.exit.thread, label %97

default_init_read_file.exit.thread:               ; preds = %79, %65, %default_init_read_file.exit
  %87 = load ptr, ptr %3, align 8, !tbaa !3
  %88 = getelementptr inbounds nuw i8, ptr %4, i64 48
  %.val = load ptr, ptr %88, align 8, !tbaa !20
  %.not.i11 = icmp eq ptr %.val, null
  br i1 %.not.i11, label %93, label %89

89:                                               ; preds = %default_init_read_file.exit.thread
  %90 = getelementptr inbounds nuw i8, ptr %87, i64 136
  %91 = load ptr, ptr %90, align 8, !tbaa !44
  %92 = call i64 %.val(ptr noundef %87, ptr noundef %91) #13
  %.pre = load ptr, ptr %3, align 8, !tbaa !3
  br label %93

93:                                               ; preds = %89, %default_init_read_file.exit.thread
  %94 = phi ptr [ %.pre, %89 ], [ %87, %default_init_read_file.exit.thread ]
  %.sink.i = phi i64 [ %92, %89 ], [ -1, %default_init_read_file.exit.thread ]
  %95 = getelementptr inbounds nuw i8, ptr %87, i64 152
  store i64 %.sink.i, ptr %95, align 8, !tbaa !52
  %96 = call i32 @internal_exr_check_magic(ptr noundef %94) #13
  br label %97

97:                                               ; preds = %default_init_read_file.exit, %93, %59
  %.0 = phi i32 [ %96, %93 ], [ %63, %59 ], [ %85, %default_init_read_file.exit ]
  %98 = call i32 @exr_finish(ptr noundef nonnull %3)
  br label %101

99:                                               ; preds = %fill_context_data.exit
  %100 = load ptr, ptr %5, align 8, !tbaa !11
  call void %100(ptr noundef null, i32 noundef 3, ptr noundef nonnull @.str) #13
  br label %101

101:                                              ; preds = %56, %97, %99
  %.3 = phi i32 [ %.0, %97 ], [ 3, %99 ], [ 1, %56 ]
  call void @llvm.lifetime.end.p0(i64 104, ptr nonnull %4) #13
  call void @llvm.lifetime.end.p0(i64 8, ptr nonnull %3) #13
  ret i32 %.3
}